Certificate:
    Data:
        Version: 1 (0x0)
        Serial Number: 4660 (0x1234)
        Signature Algorithm: md5WithRSAEncryption
        Issuer: C=EE, ST=Harjumaa, L=Tallinn, O=Taavi CA, OU=Test, CN=asd@asd.asd/emailAddress=asd@asd.asd
        Validity
            Not Before: Aug 15 08:00:00 2012 GMT
            Not After : Aug 15 09:00:00 2012 GMT
        Subject: C=EE, ST=Harjumaa, O=Taavi CA, OU=Test, CN=asd@asd.asd
        Subject Public Key Info:
            Public Key Algorithm: rsaEncryption
            RSA Public Key: (1024 bit)
                Modulus (1024 bit):
                    00:ca:cb:c3:bb:7a:d5:de:6d:fc:21:09:c1:f4:80:
                    94:38:a3:48:d8:af:47:b9:54:28:66:2c:00:56:9f:
                    9d:01:af:4f:28:6e:de:ec:ac:68:40:47:eb:0b:49:
                    5d:e6:ac:1d:89:2e:2e:b4:fd:18:c5:e7:60:74:78:
                    08:2e:2b:d7:ea:7a:f6:45:0f:9e:00:88:3f:a3:26:
                    8d:9e:e4:5d:86:18:d1:5c:7d:9a:19:8b:8e:95:aa:
                    48:be:aa:1e:66:06:82:64:96:0d:fd:e7:1d:3a:bd:
                    0a:fd:f0:cc:dc:c8:12:12:c6:a8:a4:3d:58:dc:cb:
                    92:cb:c8:7a:0b:30:5f:82:17
                Exponent: 65537 (0x10001)
    Signature Algorithm: md5WithRSAEncryption
        a1:4e:a2:d1:a0:7d:09:b5:6a:31:42:b8:c2:aa:2f:1a:0a:8a:
        b9:06:af:0c:75:ee:f4:fa:61:86:4d:c5:1d:a6:4e:a0:15:fb:
        8e:8b:88:2b:9c:e0:65:03:e2:27:9c:2a:6d:db:74:fb:b1:36:
        23:74:6b:37:b9:7b:7e:e7:bf:5f:3d:44:e5:5f:9a:36:d0:73:
        d5:32:6e:97:f6:b5:95:6c:fb:75:cb:92:31:6a:c9:20:c8:8e:
        7a:99:fa:ad:1e:7f:57:99:a2:59:c2:89:f1:6f:38:52:af:b0:
        f9:36:8e:96:97:cd:07:af:47:dd:6a:35:cd:f8:c8:7a:7b:9a:
        6c:49:41:71:73:73:e7:5e:eb:d8:7c:3b:61:8d:ff:06:0f:73:
        9a:a1:69:ab:b5:e0:9e:2d:dd:6a:b0:76:c7:34:6a:60:24:ad:
        62:c1:fe:6e:6b:e7:f1:de:98:02:36:49:1e:37:d1:7e:c9:ce:
        cb:0a:fd:7e:76:be:3c:57:52:4a:63:5b:b9:69:95:c1:22:a7:
        d7:3a:fd:e4:a6:c8:9f:72:1a:a5:57:3c:3f:84:f8:e6:4c:1c:
        d7:d0:23:96:c1:34:57:4e:83:71:a5:dc:54:5f:55:7f:ea:25:
        49:6f:3e:04:13:c9:64:55:f5:54:40:0a:e8:4f:6b:d0:22:46:
        9c:1c:5b:68:ee:f4:54:22:08:82:2f:69:98:82:96:1c:4b:22:
        6c:a8:e5:80:43:ef:be:49:19:fc:4a:c0:f8:5b:17:e8:3e:3a:
        32:d5:df:53:36:6b:b6:02:3d:bf:3c:51:6f:5c:9b:69:38:d0:
        fc:89:e0:ad:a3:56:ef:30:1b:64:cb:fa:8d:04:b0:a4:48:9f:
        14:e9:40:29:52:4f:a9:4c:39:9b:62:b2:74:ce:72:84:c7:85:
        31:7e:5b:99:dc:0e:4a:72:46:5f:21:b3:33:8d:77:4d:16:a2:
        39:3f:80:bd:6f:fb:e8:64:2e:fc:25:05:c0:37:c4:34:4d:77:
        2e:a7:76:a6:98:19:3a:8d:8f:da:2a:22:ab:f0:e5:cf:f2:95:
        0b:b8:d9:f6:a8:80:9c:14:d2:f9:67:b5:75:9f:cf:da:78:ac:
        cd:ef:61:c2:b8:c3:0b:72:ad:22:ea:73:b4:0c:54:aa:b8:8b:
        3e:62:5f:ca:15:ba:c8:3e:5d:85:81:b2:ba:db:13:73:67:bc:
        3f:20:fc:20:d6:4e:16:c4:4f:9b:cd:cd:9a:18:e3:5b:3d:18:
        88:2c:97:04:10:ac:54:da:93:12:1a:0d:86:d7:4e:52:45:cb:
        cc:f2:b3:f9:77:7b:52:94:dc:78:b4:0b:ad:82:8e:ff:21:e1:
        19:00:d9:2b:00:ab:61:12
-----BEGIN CERTIFICATE-----
MIID0DCCAbgCAhI0MA0GCSqGSIb3DQEBBAUAMIGGMQswCQYDVQQGEwJFRTERMA8G
A1UECBMISGFyanVtYWExEDAOBgNVBAcTB1RhbGxpbm4xETAPBgNVBAoTCFRhYXZp
IENBMQ0wCwYDVQQLEwRUZXN0MRQwEgYDVQQDFAthc2RAYXNkLmFzZDEaMBgGCSqG
SIb3DQEJARYLYXNkQGFzZC5hc2QwHhcNMTIwODE1MDgwMDAwWhcNMTIwODE1MDkw
MDAwWjBYMQswCQYDVQQGEwJFRTERMA8GA1UECBMISGFyanVtYWExETAPBgNVBAoT
CFRhYXZpIENBMQ0wCwYDVQQLEwRUZXN0MRQwEgYDVQQDFAthc2RAYXNkLmFzZDCB
nzANBgkqhkiG9w0BAQEFAAOBjQAwgYkCgYEAysvDu3rV3m38IQnB9ICUOKNI2K9H
uVQoZiwAVp+dAa9PKG7e7KxoQEfrC0ld5qwdiS4utP0YxedgdHgILivX6nr2RQ+e
AIg/oyaNnuRdhhjRXH2aGYuOlapIvqoeZgaCZJYN/ecdOr0K/fDM3MgSEsaopD1Y
3MuSy8h6CzBfghcCAwEAATANBgkqhkiG9w0BAQQFAAOCAgEAoU6i0aB9CbVqMUK4
wqovGgqKuQavDHXu9Pphhk3FHaZOoBX7jouIK5zgZQPiJ5wqbdt0+7E2I3RrN7l7
fue/Xz1E5V+aNtBz1TJul/a1lWz7dcuSMWrJIMiOepn6rR5/V5miWcKJ8W84Uq+w
+TaOlpfNB69H3Wo1zfjIenuabElBcXNz517r2Hw7YY3/Bg9zmqFpq7Xgni3darB2
xzRqYCStYsH+bmvn8d6YAjZJHjfRfsnOywr9fna+PFdSSmNbuWmVwSKn1zr95KbI
n3IapVc8P4T45kwc19AjlsE0V06DcaXcVF9Vf+olSW8+BBPJZFX1VEAK6E9r0CJG
nBxbaO70VCIIgi9pmIKWHEsibKjlgEPvvkkZ/ErA+FsX6D46MtXfUzZrtgI9vzxR
b1ybaTjQ/IngraNW7zAbZMv6jQSwpEifFOlAKVJPqUw5m2KydM5yhMeFMX5bmdwO
SnJGXyGzM413TRaiOT+AvW/76GQu/CUFwDfENE13Lqd2ppgZOo2P2ioiq/Dlz/KV
C7jZ9qiAnBTS+We1dZ/P2nisze9hwrjDC3KtIupztAxUqriLPmJfyhW6yD5dhYGy
utsTc2e8PyD8INZOFsRPm83NmhjjWz0YiCyXBBCsVNqTEhoNhtdOUkXLzPKz+Xd7
UpTceLQLrYKO/yHhGQDZKwCrYRI=
-----END CERTIFICATE-----
